target datalayout = "e-m:e-p270:32:32-p271:32:32-p272:64:64-i64:64-i128:128-f80:128-n8:16:32:64-S128"
target triple = "x86_64-pc-linux-gnu"

%"class.std::basic_ios" = type { %"class.std::ios_base", ptr, i8, i8, ptr, ptr, ptr, ptr }
%"class.std::ios_base" = type { ptr, i64, i64, i32, i32, i32, ptr, %"struct.std::ios_base::_Words", [8 x %"struct.std::ios_base::_Words"], i32, ptr, %"class.std::locale" }
%"struct.std::ios_base::_Words" = type { ptr, i64 }
%"class.std::locale" = type { ptr }
%"class.std::__cxx11::basic_string" = type { %"struct.std::__cxx11::basic_string<char>::_Alloc_hider", i64, %union.anon }
%"struct.std::__cxx11::basic_string<char>::_Alloc_hider" = type { ptr }
%union.anon = type { i64, [8 x i8] }
%"class.cv::Mat" = type { i32, i32, i32, i32, ptr, ptr, ptr, ptr, ptr, ptr, %"struct.cv::MatSize", %"struct.cv::MatStep" }
%"struct.cv::MatSize" = type { ptr }
%"struct.cv::MatStep" = type { ptr, [2 x i64] }
%"class.cv::Point_" = type { float, float }
%"class.std::basic_ofstream" = type { %"class.std::basic_ostream.base", %"class.std::basic_filebuf", %"class.std::basic_ios" }
%"class.std::basic_ostream.base" = type { ptr }
%"class.std::basic_filebuf" = type { %"class.std::basic_streambuf", %union.pthread_mutex_t, %"class.std::__basic_file", i32, %struct.__mbstate_t, %struct.__mbstate_t, %struct.__mbstate_t, ptr, i64, i8, i8, i8, i8, ptr, ptr, i8, ptr, ptr, i64, ptr, ptr }
%"class.std::basic_streambuf" = type { ptr, ptr, ptr, ptr, ptr, ptr, ptr, %"class.std::locale" }
%union.pthread_mutex_t = type { %struct.__pthread_mutex_s }
%struct.__pthread_mutex_s = type { i32, i32, i32, i32, i32, i16, i16, %struct.__pthread_internal_list }
%struct.__pthread_internal_list = type { ptr, ptr }
%"class.std::__basic_file" = type <{ ptr, i8, [7 x i8] }>
%struct.__mbstate_t = type { i32, %union.anon.4 }
%union.anon.4 = type { i32 }

@_ZZL22writeOpticalFlowToFileRKN2cv4Mat_INS_6Point_IfEEEERKNSt7__cxx1112basic_stringIcSt11char_traitsIcESaIcEEEE14FLO_TAG_STRING = internal constant [5 x i8] c"PIEH\00", align 1

; Function Attrs: inlinehint mustprogress nounwind uwtable
define linkonce_odr dso_local noundef i32 @_ZStorSt12_Ios_IostateS_(i32 noundef %0, i32 noundef %1) #9 comdat {
  %3 = alloca i32, align 4
  %4 = alloca i32, align 4
  store i32 %0, ptr %3, align 4, !tbaa !143
  store i32 %1, ptr %4, align 4, !tbaa !143
  %5 = load i32, ptr %3, align 4, !tbaa !143
  %6 = load i32, ptr %4, align 4, !tbaa !143
  %7 = or i32 %5, %6
  ret i32 %7
}

; Function Attrs: mustprogress nounwind uwtable
define available_externally noundef i32 @_ZNKSt9basic_iosIcSt11char_traitsIcEE7rdstateEv(ptr noundef nonnull align 8 dereferenceable(264) %0) #6 align 2 {
  %2 = alloca ptr, align 8
  store ptr %0, ptr %2, align 8, !tbaa !118
  %3 = load ptr, ptr %2, align 8
  %4 = getelementptr inbounds nuw %"class.std::ios_base", ptr %3, i32 0, i32 5
  %5 = load i32, ptr %4, align 8, !tbaa !144
  ret i32 %5
}

; Function Attrs: mustprogress nounwind uwtable
define linkonce_odr hidden noundef i64 @_ZNSt11char_traitsIcE6lengthEPKc(ptr noundef %0) #6 comdat align 2 {
  %2 = alloca ptr, align 8
  store ptr %0, ptr %2, align 8, !tbaa !12
  %3 = load ptr, ptr %2, align 8, !tbaa !12
  %4 = call i64 @strlen(ptr noundef %3) #3
  ret i64 %4
}

; Function Attrs: mustprogress uwtable
define available_externally void @_ZNSt9basic_iosIcSt11char_traitsIcEE8setstateESt12_Ios_Iostate(ptr noundef nonnull align 8 dereferenceable(264) %0, i32 noundef %1) #7 align 2 {
  %3 = alloca ptr, align 8
  %4 = alloca i32, align 4
  store ptr %0, ptr %3, align 8, !tbaa !118
  store i32 %1, ptr %4, align 4, !tbaa !143
  %5 = load ptr, ptr %3, align 8
  %6 = call noundef i32 @_ZNKSt9basic_iosIcSt11char_traitsIcEE7rdstateEv(ptr noundef nonnull align 8 dereferenceable(264) %5)
  %7 = load i32, ptr %4, align 4, !tbaa !143
  %8 = call noundef i32 @_ZStorSt12_Ios_IostateS_(i32 noundef %6, i32 noundef %7)
  call void @_ZNSt9basic_iosIcSt11char_traitsIcEE5clearESt12_Ios_Iostate(ptr noundef nonnull align 8 dereferenceable(264) %5, i32 noundef %8)
  ret void
}

; Function Attrs: noinline noreturn nounwind uwtable
define linkonce_odr hidden void @__clang_call_terminate(ptr noundef %0) #14 comdat {
  %2 = call ptr @__cxa_begin_catch(ptr %0) #3
  call void @_ZSt9terminatev() #22
  unreachable
}

; Function Attrs: mustprogress nounwind uwtable
define available_externally noundef ptr @_ZNKSt7__cxx1112basic_stringIcSt11char_traitsIcESaIcEE7_M_dataEv(ptr noundef nonnull align 8 dereferenceable(32) %0) #6 align 2 {
  %2 = alloca ptr, align 8
  store ptr %0, ptr %2, align 8, !tbaa !20
  %3 = load ptr, ptr %2, align 8
  %4 = getelementptr inbounds nuw %"class.std::__cxx11::basic_string", ptr %3, i32 0, i32 0
  %5 = getelementptr inbounds nuw %"struct.std::__cxx11::basic_string<char>::_Alloc_hider", ptr %4, i32 0, i32 0
  %6 = load ptr, ptr %5, align 8, !tbaa !115
  ret ptr %6
}

; Function Attrs: inlinehint mustprogress nounwind uwtable
define linkonce_odr hidden noundef nonnull align 4 dereferenceable(8) ptr @_ZNK2cv4Mat_INS_6Point_IfEEEclEii(ptr noundef nonnull align 8 dereferenceable(96) %0, i32 noundef %1, i32 noundef %2) #9 comdat align 2 {
  %4 = alloca ptr, align 8
  %5 = alloca i32, align 4
  %6 = alloca i32, align 4
  store ptr %0, ptr %4, align 8, !tbaa !38
  store i32 %1, ptr %5, align 4, !tbaa !4
  store i32 %2, ptr %6, align 4, !tbaa !4
  %7 = load ptr, ptr %4, align 8
  %8 = getelementptr inbounds nuw %"class.cv::Mat", ptr %7, i32 0, i32 4
  %9 = load ptr, ptr %8, align 8, !tbaa !79
  %10 = getelementptr inbounds nuw %"class.cv::Mat", ptr %7, i32 0, i32 11
  %11 = getelementptr inbounds nuw %"struct.cv::MatStep", ptr %10, i32 0, i32 0
  %12 = load ptr, ptr %11, align 8, !tbaa !80
  %13 = getelementptr inbounds i64, ptr %12, i64 0
  %14 = load i64, ptr %13, align 8, !tbaa !81
  %15 = load i32, ptr %5, align 4, !tbaa !4
  %16 = sext i32 %15 to i64
  %17 = mul i64 %14, %16
  %18 = getelementptr inbounds nuw i8, ptr %9, i64 %17
  %19 = load i32, ptr %6, align 4, !tbaa !4
  %20 = sext i32 %19 to i64
  %21 = getelementptr inbounds %"class.cv::Point_", ptr %18, i64 %20
  ret ptr %21
}

; Function Attrs: inlinehint mustprogress uwtable
define available_externally noundef nonnull align 8 dereferenceable(8) ptr @_ZStlsISt11char_traitsIcEERSt13basic_ostreamIcT_ES5_PKc(ptr noundef nonnull align 8 dereferenceable(8) %0, ptr noundef %1) #8 {
  %3 = alloca ptr, align 8
  %4 = alloca ptr, align 8
  store ptr %0, ptr %3, align 8, !tbaa !28
  store ptr %1, ptr %4, align 8, !tbaa !12
  %5 = load ptr, ptr %4, align 8, !tbaa !12
  %6 = icmp ne ptr %5, null
  br i1 %6, label %13, label %7

7:                                                ; preds = %2
  %8 = load ptr, ptr %3, align 8, !tbaa !28
  %9 = load ptr, ptr %8, align 8, !tbaa !16
  %10 = getelementptr i8, ptr %9, i64 -24
  %11 = load i64, ptr %10, align 8
  %12 = getelementptr inbounds i8, ptr %8, i64 %11
  call void @_ZNSt9basic_iosIcSt11char_traitsIcEE8setstateESt12_Ios_Iostate(ptr noundef nonnull align 8 dereferenceable(264) %12, i32 noundef 1)
  br label %19

13:                                               ; preds = %2
  %14 = load ptr, ptr %3, align 8, !tbaa !28
  %15 = load ptr, ptr %4, align 8, !tbaa !12
  %16 = load ptr, ptr %4, align 8, !tbaa !12
  %17 = call noundef i64 @_ZNSt11char_traitsIcE6lengthEPKc(ptr noundef %16)
  %18 = call noundef nonnull align 8 dereferenceable(8) ptr @_ZSt16__ostream_insertIcSt11char_traitsIcEERSt13basic_ostreamIT_T0_ES6_PKS3_l(ptr noundef nonnull align 8 dereferenceable(8) %14, ptr noundef %15, i64 noundef %17)
  br label %19

19:                                               ; preds = %13, %7
  %20 = load ptr, ptr %3, align 8, !tbaa !28
  ret ptr %20
}

; Function Attrs: mustprogress nounwind uwtable
define available_externally noundef ptr @_ZNKSt7__cxx1112basic_stringIcSt11char_traitsIcESaIcEE5c_strEv(ptr noundef nonnull align 8 dereferenceable(32) %0) #6 align 2 personality ptr @__gxx_personality_v0 {
  %2 = alloca ptr, align 8
  store ptr %0, ptr %2, align 8, !tbaa !20
  %3 = load ptr, ptr %2, align 8
  %4 = invoke noundef ptr @_ZNKSt7__cxx1112basic_stringIcSt11char_traitsIcESaIcEE7_M_dataEv(ptr noundef nonnull align 8 dereferenceable(32) %3)
          to label %5 unwind label %6

5:                                                ; preds = %1
  ret ptr %4

6:                                                ; preds = %1
  %7 = landingpad { ptr, i32 }
          catch ptr null
  %8 = extractvalue { ptr, i32 } %7, 0
  call void @__clang_call_terminate(ptr %8) #22
  unreachable
}

; Function Attrs: mustprogress uwtable
define internal void @_ZL22writeOpticalFlowToFileRKN2cv4Mat_INS_6Point_IfEEEERKNSt7__cxx1112basic_stringIcSt11char_traitsIcESaIcEEE(ptr noundef nonnull align 8 dereferenceable(96) %0, ptr noundef nonnull align 8 dereferenceable(32) %1) #7 personality ptr @__gxx_personality_v0 {
  %3 = alloca ptr, align 8
  %4 = alloca ptr, align 8
  %5 = alloca %"class.std::basic_ofstream", align 8
  %6 = alloca ptr, align 8
  %7 = alloca i32, align 4
  %8 = alloca i32, align 4
  %9 = alloca i32, align 4
  %10 = alloca i32, align 4
  %11 = alloca %"class.cv::Point_", align 4
  store ptr %0, ptr %3, align 8, !tbaa !38
  store ptr %1, ptr %4, align 8, !tbaa !20
  call void @llvm.lifetime.start.p0(i64 512, ptr %5) #3
  %12 = load ptr, ptr %4, align 8, !tbaa !20
  %13 = call noundef ptr @_ZNKSt7__cxx1112basic_stringIcSt11char_traitsIcESaIcEE5c_strEv(ptr noundef nonnull align 8 dereferenceable(32) %12) #3
  call void @_ZNSt14basic_ofstreamIcSt11char_traitsIcEEC1EPKcSt13_Ios_Openmode(ptr noundef nonnull align 8 dereferenceable(248) %5, ptr noundef %13, i32 noundef 4)
  %14 = invoke noundef nonnull align 8 dereferenceable(8) ptr @_ZStlsISt11char_traitsIcEERSt13basic_ostreamIcT_ES5_PKc(ptr noundef nonnull align 8 dereferenceable(8) %5, ptr noundef @_ZZL22writeOpticalFlowToFileRKN2cv4Mat_INS_6Point_IfEEEERKNSt7__cxx1112basic_stringIcSt11char_traitsIcESaIcEEEE14FLO_TAG_STRING)
          to label %15 unwind label %31

15:                                               ; preds = %2
  %16 = load ptr, ptr %3, align 8, !tbaa !38
  %17 = getelementptr inbounds nuw %"class.cv::Mat", ptr %16, i32 0, i32 3
  %18 = invoke noundef nonnull align 8 dereferenceable(8) ptr @_ZNSo5writeEPKcl(ptr noundef nonnull align 8 dereferenceable(8) %5, ptr noundef %17, i64 noundef 4)
          to label %19 unwind label %31

19:                                               ; preds = %15
  %20 = load ptr, ptr %3, align 8, !tbaa !38
  %21 = getelementptr inbounds nuw %"class.cv::Mat", ptr %20, i32 0, i32 2
  %22 = invoke noundef nonnull align 8 dereferenceable(8) ptr @_ZNSo5writeEPKcl(ptr noundef nonnull align 8 dereferenceable(8) %5, ptr noundef %21, i64 noundef 4)
          to label %23 unwind label %31

23:                                               ; preds = %19
  call void @llvm.lifetime.start.p0(i64 4, ptr %8) #3
  store i32 0, ptr %8, align 4, !tbaa !4
  br label %24

24:                                               ; preds = %62, %23
  %25 = load i32, ptr %8, align 4, !tbaa !4
  %26 = load ptr, ptr %3, align 8, !tbaa !38
  %27 = getelementptr inbounds nuw %"class.cv::Mat", ptr %26, i32 0, i32 2
  %28 = load i32, ptr %27, align 8, !tbaa !56
  %29 = icmp slt i32 %25, %28
  br i1 %29, label %35, label %30

30:                                               ; preds = %24
  store i32 2, ptr %9, align 4
  call void @llvm.lifetime.end.p0(i64 4, ptr %8) #3
  br label %65

31:                                               ; preds = %19, %15, %2
  %32 = landingpad { ptr, i32 }
          cleanup
  %33 = extractvalue { ptr, i32 } %32, 0
  store ptr %33, ptr %6, align 8
  %34 = extractvalue { ptr, i32 } %32, 1
  store i32 %34, ptr %7, align 4
  br label %66

35:                                               ; preds = %24
  call void @llvm.lifetime.start.p0(i64 4, ptr %10) #3
  store i32 0, ptr %10, align 4, !tbaa !4
  br label %36

36:                                               ; preds = %54, %35
  %37 = load i32, ptr %10, align 4, !tbaa !4
  %38 = load ptr, ptr %3, align 8, !tbaa !38
  %39 = getelementptr inbounds nuw %"class.cv::Mat", ptr %38, i32 0, i32 3
  %40 = load i32, ptr %39, align 4, !tbaa !57
  %41 = icmp slt i32 %37, %40
  br i1 %41, label %43, label %42

42:                                               ; preds = %36
  store i32 5, ptr %9, align 4
  call void @llvm.lifetime.end.p0(i64 4, ptr %10) #3
  br label %61

43:                                               ; preds = %36
  call void @llvm.lifetime.start.p0(i64 8, ptr %11) #3
  %44 = load ptr, ptr %3, align 8, !tbaa !38
  %45 = load i32, ptr %8, align 4, !tbaa !4
  %46 = load i32, ptr %10, align 4, !tbaa !4
  %47 = call noundef nonnull align 4 dereferenceable(8) ptr @_ZNK2cv4Mat_INS_6Point_IfEEEclEii(ptr noundef nonnull align 8 dereferenceable(96) %44, i32 noundef %45, i32 noundef %46)
  call void @llvm.memcpy.p0.p0.i64(ptr align 4 %11, ptr align 4 %47, i64 8, i1 false), !tbaa.struct !58
  %48 = getelementptr inbounds nuw %"class.cv::Point_", ptr %11, i32 0, i32 0
  %49 = invoke noundef nonnull align 8 dereferenceable(8) ptr @_ZNSo5writeEPKcl(ptr noundef nonnull align 8 dereferenceable(8) %5, ptr noundef %48, i64 noundef 4)
          to label %50 unwind label %57

50:                                               ; preds = %43
  %51 = getelementptr inbounds nuw %"class.cv::Point_", ptr %11, i32 0, i32 1
  %52 = invoke noundef nonnull align 8 dereferenceable(8) ptr @_ZNSo5writeEPKcl(ptr noundef nonnull align 8 dereferenceable(8) %5, ptr noundef %51, i64 noundef 4)
          to label %53 unwind label %57

53:                                               ; preds = %50
  call void @llvm.lifetime.end.p0(i64 8, ptr %11) #3
  br label %54

54:                                               ; preds = %53
  %55 = load i32, ptr %10, align 4, !tbaa !4
  %56 = add nsw i32 %55, 1
  store i32 %56, ptr %10, align 4, !tbaa !4
  br label %36, !llvm.loop !67

57:                                               ; preds = %50, %43
  %58 = landingpad { ptr, i32 }
          cleanup
  %59 = extractvalue { ptr, i32 } %58, 0
  store ptr %59, ptr %6, align 8
  %60 = extractvalue { ptr, i32 } %58, 1
  store i32 %60, ptr %7, align 4
  call void @llvm.lifetime.end.p0(i64 8, ptr %11) #3
  call void @llvm.lifetime.end.p0(i64 4, ptr %10) #3
  call void @llvm.lifetime.end.p0(i64 4, ptr %8) #3
  br label %66

61:                                               ; preds = %42
  br label %62

62:                                               ; preds = %61
  %63 = load i32, ptr %8, align 4, !tbaa !4
  %64 = add nsw i32 %63, 1
  store i32 %64, ptr %8, align 4, !tbaa !4
  br label %24, !llvm.loop !68

65:                                               ; preds = %30
  call void @_ZNSt14basic_ofstreamIcSt11char_traitsIcEED1Ev(ptr noundef nonnull align 8 dereferenceable(248) %5) #3
  call void @llvm.lifetime.end.p0(i64 512, ptr %5) #3
  ret void

66:                                               ; preds = %57, %31
  call void @_ZNSt14basic_ofstreamIcSt11char_traitsIcEED1Ev(ptr noundef nonnull align 8 dereferenceable(248) %5) #3
  call void @llvm.lifetime.end.p0(i64 512, ptr %5) #3
  br label %67

67:                                               ; preds = %66
  %68 = load ptr, ptr %6, align 8
  %69 = load i32, ptr %7, align 4
  %70 = insertvalue { ptr, i32 } poison, ptr %68, 0
  %71 = insertvalue { ptr, i32 } %70, i32 %69, 1
  resume { ptr, i32 } %71
}