; Function Attrs: mustprogress norecurse uwtable
define internal fastcc void @_ZL22writeOpticalFlowToFileRKN2cv4Mat_INS_6Point_IfEEEERKNSt7__cxx1112basic_stringIcSt11char_traitsIcESaIcEEE(ptr noundef nonnull align 8 dereferenceable(96) %0, ptr %.0.val) unnamed_addr #3 personality ptr @__gxx_personality_v0 {
  %2 = alloca %"class.std::basic_ofstream", align 8
  %3 = alloca %"class.cv::Point_", align 8
  call void @llvm.lifetime.start.p0(i64 512, ptr nonnull %2) #21
  call void @_ZNSt14basic_ofstreamIcSt11char_traitsIcEEC1EPKcSt13_Ios_Openmode(ptr noundef nonnull align 8 dereferenceable(248) %2, ptr noundef %.0.val, i32 noundef 4)
  %4 = invoke noundef nonnull align 8 dereferenceable(8) ptr @_ZSt16__ostream_insertIcSt11char_traitsIcEERSt13basic_ostreamIT_T0_ES6_PKS3_l(ptr noundef nonnull align 8 dereferenceable(8) %2, ptr noundef nonnull @_ZZL22writeOpticalFlowToFileRKN2cv4Mat_INS_6Point_IfEEEERKNSt7__cxx1112basic_stringIcSt11char_traitsIcESaIcEEEE14FLO_TAG_STRING, i64 noundef 4)
          to label %_ZStlsISt11char_traitsIcEERSt13basic_ostreamIcT_ES5_PKc.exit unwind label %27

_ZStlsISt11char_traitsIcEERSt13basic_ostreamIcT_ES5_PKc.exit: ; preds = %1
  %5 = getelementptr inbounds nuw i8, ptr %0, i64 12
  %6 = invoke noundef nonnull align 8 dereferenceable(8) ptr @_ZNSo5writeEPKcl(ptr noundef nonnull align 8 dereferenceable(8) %2, ptr noundef nonnull %5, i64 noundef 4)
          to label %7 unwind label %27

7:                                                ; preds = %_ZStlsISt11char_traitsIcEERSt13basic_ostreamIcT_ES5_PKc.exit
  %8 = getelementptr inbounds nuw i8, ptr %0, i64 8
  %9 = invoke noundef nonnull align 8 dereferenceable(8) ptr @_ZNSo5writeEPKcl(ptr noundef nonnull align 8 dereferenceable(8) %2, ptr noundef nonnull %8, i64 noundef 4)
          to label %.preheader1 unwind label %27

.preheader1:                                      ; preds = %7
  %10 = load i32, ptr %8, align 8, !tbaa !75
  %11 = icmp sgt i32 %10, 0
  br i1 %11, label %.preheader.lr.ph, label %._crit_edge4

.preheader.lr.ph:                                 ; preds = %.preheader1
  %12 = getelementptr inbounds nuw i8, ptr %0, i64 16
  %13 = getelementptr inbounds nuw i8, ptr %0, i64 72
  %14 = getelementptr inbounds nuw i8, ptr %3, i64 4
  %15 = load i32, ptr %5, align 4, !tbaa !76
  %16 = icmp sgt i32 %15, 0
  br i1 %16, label %.preheader, label %._crit_edge4

.preheader:                                       ; preds = %.preheader.lr.ph, %._crit_edge
  %17 = phi i32 [ %29, %._crit_edge ], [ %10, %.preheader.lr.ph ]
  %18 = phi i32 [ %30, %._crit_edge ], [ %15, %.preheader.lr.ph ]
  %indvars.iv7 = phi i64 [ %indvars.iv.next8, %._crit_edge ], [ 0, %.preheader.lr.ph ]
  %19 = icmp sgt i32 %18, 0
  br i1 %19, label %.lr.ph, label %._crit_edge

._crit_edge4:                                     ; preds = %._crit_edge, %.preheader.lr.ph, %.preheader1
  %20 = load ptr, ptr @_ZTTSt14basic_ofstreamIcSt11char_traitsIcEE, align 8
  store ptr %20, ptr %2, align 8, !tbaa !26
  %21 = load ptr, ptr getelementptr inbounds nuw (i8, ptr @_ZTTSt14basic_ofstreamIcSt11char_traitsIcEE, i64 24), align 8
  %22 = getelementptr i8, ptr %20, i64 -24
  %23 = load i64, ptr %22, align 8
  %24 = getelementptr inbounds i8, ptr %2, i64 %23
  store ptr %21, ptr %24, align 8, !tbaa !26
  %25 = getelementptr inbounds nuw i8, ptr %2, i64 8
  call void @_ZNSt13basic_filebufIcSt11char_traitsIcEED2Ev(ptr noundef nonnull align 8 dereferenceable(240) %25) #21
  %26 = getelementptr inbounds nuw i8, ptr %2, i64 248
  call void @_ZNSt8ios_baseD2Ev(ptr noundef nonnull align 8 dereferenceable(264) %26) #21
  call void @llvm.lifetime.end.p0(i64 512, ptr nonnull %2) #21
  ret void

27:                                               ; preds = %1, %7, %_ZStlsISt11char_traitsIcEERSt13basic_ostreamIcT_ES5_PKc.exit
  %28 = landingpad { ptr, i32 }
          cleanup
  br label %49

._crit_edge.loopexit:                             ; preds = %43
  %.pre = load i32, ptr %8, align 8, !tbaa !75
  br label %._crit_edge

._crit_edge:                                      ; preds = %._crit_edge.loopexit, %.preheader
  %29 = phi i32 [ %.pre, %._crit_edge.loopexit ], [ %17, %.preheader ]
  %30 = phi i32 [ %44, %._crit_edge.loopexit ], [ %18, %.preheader ]
  %indvars.iv.next8 = add nuw nsw i64 %indvars.iv7, 1
  %31 = sext i32 %29 to i64
  %32 = icmp slt i64 %indvars.iv.next8, %31
  br i1 %32, label %.preheader, label %._crit_edge4, !llvm.loop !96

.lr.ph:                                           ; preds = %.preheader, %43
  %indvars.iv = phi i64 [ %indvars.iv.next, %43 ], [ 0, %.preheader ]
  call void @llvm.lifetime.start.p0(i64 8, ptr nonnull %3) #21
  %33 = load ptr, ptr %12, align 8, !tbaa !82
  %34 = load ptr, ptr %13, align 8, !tbaa !83
  %35 = load i64, ptr %34, align 8, !tbaa !10
  %36 = mul i64 %35, %indvars.iv7
  %37 = getelementptr inbounds nuw i8, ptr %33, i64 %36
  %38 = getelementptr inbounds nuw %"class.cv::Point_", ptr %37, i64 %indvars.iv
  %39 = load i64, ptr %38, align 4
  store i64 %39, ptr %3, align 8
  %40 = invoke noundef nonnull align 8 dereferenceable(8) ptr @_ZNSo5writeEPKcl(ptr noundef nonnull align 8 dereferenceable(8) %2, ptr noundef nonnull %3, i64 noundef 4)
          to label %41 unwind label %47

41:                                               ; preds = %.lr.ph
  %42 = invoke noundef nonnull align 8 dereferenceable(8) ptr @_ZNSo5writeEPKcl(ptr noundef nonnull align 8 dereferenceable(8) %2, ptr noundef nonnull %14, i64 noundef 4)
          to label %43 unwind label %47

43:                                               ; preds = %41
  call void @llvm.lifetime.end.p0(i64 8, ptr nonnull %3) #21
  %indvars.iv.next = add nuw nsw i64 %indvars.iv, 1
  %44 = load i32, ptr %5, align 4, !tbaa !76
  %45 = sext i32 %44 to i64
  %46 = icmp slt i64 %indvars.iv.next, %45
  br i1 %46, label %.lr.ph, label %._crit_edge.loopexit, !llvm.loop !97

47:                                               ; preds = %41, %.lr.ph
  %48 = landingpad { ptr, i32 }
          cleanup
  call void @llvm.lifetime.end.p0(i64 8, ptr nonnull %3) #21
  br label %49

49:                                               ; preds = %47, %27
  %.pn = phi { ptr, i32 } [ %48, %47 ], [ %28, %27 ]
  call void @_ZNSt14basic_ofstreamIcSt11char_traitsIcEED1Ev(ptr noundef nonnull align 8 dereferenceable(248) %2) #21
  call void @llvm.lifetime.end.p0(i64 512, ptr nonnull %2) #21
  resume { ptr, i32 } %.pn
}